; Function Attrs: mustprogress nofree nounwind willreturn memory(read, inaccessiblemem: none) uwtable
define internal noundef zeroext i1 @_ZNK7rocksdb12_GLOBAL__N_122BytewiseComparatorImpl21EqualWithoutTimestampERKNS_5SliceES4_(ptr nonnull readnone align 8 captures(none) %0, ptr noundef nonnull readonly align 8 captures(none) dereferenceable(16) %1, ptr noundef nonnull readonly align 8 captures(none) dereferenceable(16) %2) unnamed_addr #10 align 2 {
  %4 = getelementptr inbounds nuw i8, ptr %1, i64 8
  %5 = load i64, ptr %4, align 8, !tbaa !29
  %6 = getelementptr inbounds nuw i8, ptr %2, i64 8
  %7 = load i64, ptr %6, align 8, !tbaa !29
  %8 = icmp eq i64 %5, %7
  br i1 %8, label %9, label %_ZN7rocksdbeqERKNS_5SliceES2_.exit

9:                                                ; preds = %3
  %10 = load ptr, ptr %1, align 8, !tbaa !32
  %11 = load ptr, ptr %2, align 8, !tbaa !32
  %bcmp.i = tail call i32 @bcmp(ptr %10, ptr %11, i64 %5)
  %12 = icmp eq i32 %bcmp.i, 0
  br label %_ZN7rocksdbeqERKNS_5SliceES2_.exit

_ZN7rocksdbeqERKNS_5SliceES2_.exit:               ; preds = %3, %9
  %13 = phi i1 [ false, %3 ], [ %12, %9 ]
  ret i1 %13
}